target datalayout = "e-m:e-p270:32:32-p271:32:32-p272:64:64-i64:64-i128:128-f80:128-n8:16:32:64-S128"
target triple = "x86_64-unknown-linux-gnu"

%"class.std::__cxx11::basic_string" = type { %"struct.std::__cxx11::basic_string<char>::_Alloc_hider", i64, %union.anon }
%"struct.std::__cxx11::basic_string<char>::_Alloc_hider" = type { ptr }
%union.anon = type { i64, [8 x i8] }
%struct.aiString = type { i32, [1024 x i8] }
%"struct.Assimp::D3DS::Texture" = type { float, %"class.std::__cxx11::basic_string", float, float, float, float, float, i32, i8, i32 }
%union._IEEESingle = type { float }

@.str.16 = private unnamed_addr constant [10 x i8] c"$tex.file\00", align 1
@.str.17 = private unnamed_addr constant [11 x i8] c"$tex.blend\00", align 1
@.str.18 = private unnamed_addr constant [13 x i8] c"$tex.uvtrafo\00", align 1

; Function Attrs: mustprogress nounwind uwtable
define linkonce_odr hidden noundef zeroext i1 @_Z7is_qnanf(float noundef %in) #0 comdat {
entry:
  %in.addr = alloca float, align 4
  %temp = alloca %union._IEEESingle, align 4
  store float %in, ptr %in.addr, align 4
  call void @llvm.memcpy.p0.p0.i64(ptr align 4 %temp, ptr align 4 %in.addr, i64 4, i1 false)
  %bf.load = load i32, ptr %temp, align 4
  %bf.lshr = lshr i32 %bf.load, 23
  %bf.clear = and i32 %bf.lshr, 255
  %cmp = icmp eq i32 %bf.clear, 255
  br i1 %cmp, label %land.rhs, label %land.end

land.rhs:                                         ; preds = %entry
  %bf.load1 = load i32, ptr %temp, align 4
  %bf.clear2 = and i32 %bf.load1, 8388607
  %tobool = icmp ne i32 %bf.clear2, 0
  br label %land.end

land.end:                                         ; preds = %land.rhs, %entry
  %0 = phi i1 [ false, %entry ], [ %tobool, %land.rhs ]
  ret i1 %0
}

; Function Attrs: mustprogress uwtable
define linkonce_odr noundef i32 @_ZN10aiMaterial11AddPropertyIfEE8aiReturnPKT_jPKcjj(ptr noundef nonnull align 8 dereferenceable(16) %this, ptr noundef %pInput, i32 noundef %pNumValues, ptr noundef %pKey, i32 noundef %type, i32 noundef %index) #3 comdat align 2 {
entry:
  %this.addr = alloca ptr, align 8
  %pInput.addr = alloca ptr, align 8
  %pNumValues.addr = alloca i32, align 4
  %pKey.addr = alloca ptr, align 8
  %type.addr = alloca i32, align 4
  %index.addr = alloca i32, align 4
  store ptr %this, ptr %this.addr, align 8
  store ptr %pInput, ptr %pInput.addr, align 8
  store i32 %pNumValues, ptr %pNumValues.addr, align 4
  store ptr %pKey, ptr %pKey.addr, align 8
  store i32 %type, ptr %type.addr, align 4
  store i32 %index, ptr %index.addr, align 4
  %this1 = load ptr, ptr %this.addr, align 8
  %0 = load ptr, ptr %pInput.addr, align 8
  %1 = load i32, ptr %pNumValues.addr, align 4
  %conv = zext i32 %1 to i64
  %mul = mul i64 %conv, 4
  %conv2 = trunc i64 %mul to i32
  %2 = load ptr, ptr %pKey.addr, align 8
  %3 = load i32, ptr %type.addr, align 4
  %4 = load i32, ptr %index.addr, align 4
  %call = call noundef i32 @_ZN10aiMaterial17AddBinaryPropertyEPKvjPKcjj18aiPropertyTypeInfo(ptr noundef nonnull align 8 dereferenceable(16) %this1, ptr noundef %0, i32 noundef %conv2, ptr noundef %2, i32 noundef %3, i32 noundef %4, i32 noundef 1)
  ret i32 %call
}

; Function Attrs: mustprogress uwtable
define linkonce_odr hidden noundef zeroext i1 @_Z11is_not_qnanIfEbT_(float noundef %in) #3 comdat {
entry:
  %in.addr = alloca float, align 4
  store float %in, ptr %in.addr, align 4
  %0 = load float, ptr %in.addr, align 4
  %call = call noundef zeroext i1 @_Z7is_qnanf(float noundef %0)
  %lnot = xor i1 %call, true
  ret i1 %lnot
}

; Function Attrs: mustprogress nounwind uwtable
define linkonce_odr hidden void @_ZN8aiString3SetERKNSt7__cxx1112basic_stringIcSt11char_traitsIcESaIcEEE(ptr noundef nonnull align 4 dereferenceable(1028) %this, ptr noundef nonnull align 8 dereferenceable(32) %pString) #0 comdat align 2 {
entry:
  %this.addr = alloca ptr, align 8
  %pString.addr = alloca ptr, align 8
  store ptr %this, ptr %this.addr, align 8
  store ptr %pString, ptr %pString.addr, align 8
  %this1 = load ptr, ptr %this.addr, align 8
  %0 = load ptr, ptr %pString.addr, align 8
  %call = call noundef i64 @_ZNKSt7__cxx1112basic_stringIcSt11char_traitsIcESaIcEE6lengthEv(ptr noundef nonnull align 8 dereferenceable(32) %0) #15
  %cmp = icmp ugt i64 %call, 1023
  br i1 %cmp, label %if.then, label %if.end

if.then:                                          ; preds = %entry
  br label %return

if.end:                                           ; preds = %entry
  %1 = load ptr, ptr %pString.addr, align 8
  %call2 = call noundef i64 @_ZNKSt7__cxx1112basic_stringIcSt11char_traitsIcESaIcEE6lengthEv(ptr noundef nonnull align 8 dereferenceable(32) %1) #15
  %conv = trunc i64 %call2 to i32
  %length = getelementptr inbounds %struct.aiString, ptr %this1, i32 0, i32 0
  store i32 %conv, ptr %length, align 4
  %data = getelementptr inbounds %struct.aiString, ptr %this1, i32 0, i32 1
  %arraydecay = getelementptr inbounds [1024 x i8], ptr %data, i64 0, i64 0
  %2 = load ptr, ptr %pString.addr, align 8
  %call3 = call noundef ptr @_ZNKSt7__cxx1112basic_stringIcSt11char_traitsIcESaIcEE5c_strEv(ptr noundef nonnull align 8 dereferenceable(32) %2) #15
  %length4 = getelementptr inbounds %struct.aiString, ptr %this1, i32 0, i32 0
  %3 = load i32, ptr %length4, align 4
  %conv5 = zext i32 %3 to i64
  call void @llvm.memcpy.p0.p0.i64(ptr align 4 %arraydecay, ptr align 1 %call3, i64 %conv5, i1 false)
  %data6 = getelementptr inbounds %struct.aiString, ptr %this1, i32 0, i32 1
  %length7 = getelementptr inbounds %struct.aiString, ptr %this1, i32 0, i32 0
  %4 = load i32, ptr %length7, align 4
  %idxprom = zext i32 %4 to i64
  %arrayidx = getelementptr inbounds [1024 x i8], ptr %data6, i64 0, i64 %idxprom
  store i8 0, ptr %arrayidx, align 1
  br label %return

return:                                           ; preds = %if.end, %if.then
  ret void
}

; Function Attrs: mustprogress nounwind uwtable
define linkonce_odr hidden void @_ZN8aiStringC2Ev(ptr noundef nonnull align 4 dereferenceable(1028) %this) unnamed_addr #0 comdat align 2 {
entry:
  %this.addr = alloca ptr, align 8
  store ptr %this, ptr %this.addr, align 8
  %this1 = load ptr, ptr %this.addr, align 8
  %length = getelementptr inbounds %struct.aiString, ptr %this1, i32 0, i32 0
  store i32 0, ptr %length, align 4
  %data = getelementptr inbounds %struct.aiString, ptr %this1, i32 0, i32 1
  %arrayidx = getelementptr inbounds [1024 x i8], ptr %data, i64 0, i64 0
  store i8 0, ptr %arrayidx, align 4
  ret void
}

; Function Attrs: mustprogress uwtable
define hidden void @_ZN6Assimp14CopyASETextureER10aiMaterialRNS_4D3DS7TextureE13aiTextureType(ptr noundef nonnull align 8 dereferenceable(16) %mat, ptr noundef nonnull align 8 dereferenceable(72) %texture, i32 noundef %type) #3 {
entry:
  %mat.addr = alloca ptr, align 8
  %texture.addr = alloca ptr, align 8
  %type.addr = alloca i32, align 4
  %tex = alloca %struct.aiString, align 4
  store ptr %mat, ptr %mat.addr, align 8
  store ptr %texture, ptr %texture.addr, align 8
  store i32 %type, ptr %type.addr, align 4
  call void @_ZN8aiStringC2Ev(ptr noundef nonnull align 4 dereferenceable(1028) %tex) #15
  %0 = load ptr, ptr %texture.addr, align 8
  %mMapName = getelementptr inbounds %"struct.Assimp::D3DS::Texture", ptr %0, i32 0, i32 1
  call void @_ZN8aiString3SetERKNSt7__cxx1112basic_stringIcSt11char_traitsIcESaIcEEE(ptr noundef nonnull align 4 dereferenceable(1028) %tex, ptr noundef nonnull align 8 dereferenceable(32) %mMapName)
  %1 = load ptr, ptr %mat.addr, align 8
  %2 = load i32, ptr %type.addr, align 4
  %call = call noundef i32 @_ZN10aiMaterial11AddPropertyEPK8aiStringPKcjj(ptr noundef nonnull align 8 dereferenceable(16) %1, ptr noundef %tex, ptr noundef @.str.16, i32 noundef %2, i32 noundef 0)
  %3 = load ptr, ptr %texture.addr, align 8
  %mTextureBlend = getelementptr inbounds %"struct.Assimp::D3DS::Texture", ptr %3, i32 0, i32 0
  %4 = load float, ptr %mTextureBlend, align 8
  %call1 = call noundef zeroext i1 @_Z11is_not_qnanIfEbT_(float noundef %4)
  br i1 %call1, label %if.then, label %if.end

if.then:                                          ; preds = %entry
  %5 = load ptr, ptr %mat.addr, align 8
  %6 = load ptr, ptr %texture.addr, align 8
  %mTextureBlend2 = getelementptr inbounds %"struct.Assimp::D3DS::Texture", ptr %6, i32 0, i32 0
  %7 = load i32, ptr %type.addr, align 4
  %call3 = call noundef i32 @_ZN10aiMaterial11AddPropertyIfEE8aiReturnPKT_jPKcjj(ptr noundef nonnull align 8 dereferenceable(16) %5, ptr noundef %mTextureBlend2, i32 noundef 1, ptr noundef @.str.17, i32 noundef %7, i32 noundef 0)
  br label %if.end

if.end:                                           ; preds = %if.then, %entry
  %8 = load ptr, ptr %mat.addr, align 8
  %9 = load ptr, ptr %texture.addr, align 8
  %mOffsetU = getelementptr inbounds %"struct.Assimp::D3DS::Texture", ptr %9, i32 0, i32 2
  %10 = load i32, ptr %type.addr, align 4
  %call4 = call noundef i32 @_ZN10aiMaterial11AddPropertyIfEE8aiReturnPKT_jPKcjj(ptr noundef nonnull align 8 dereferenceable(16) %8, ptr noundef %mOffsetU, i32 noundef 5, ptr noundef @.str.18, i32 noundef %10, i32 noundef 0)
  ret void
}