; Function Attrs: mustprogress uwtable
define hidden void @_ZN6Assimp14CopyASETextureER10aiMaterialRNS_4D3DS7TextureE13aiTextureType(ptr noundef nonnull align 8 dereferenceable(16) %mat, ptr noundef nonnull align 8 dereferenceable(72) %texture, i32 noundef %type) local_unnamed_addr #2 {
entry:
  %tex = alloca %struct.aiString, align 4
  store i32 0, ptr %tex, align 4
  %data.i = getelementptr inbounds i8, ptr %tex, i64 4
  store i8 0, ptr %data.i, align 4
  %mMapName = getelementptr inbounds i8, ptr %texture, i64 8
  %call.i = tail call noundef i64 @_ZNKSt7__cxx1112basic_stringIcSt11char_traitsIcESaIcEE6lengthEv(ptr noundef nonnull align 8 dereferenceable(32) %mMapName) #19
  %cmp.i = icmp ugt i64 %call.i, 1023
  br i1 %cmp.i, label %_ZN8aiString3SetERKNSt7__cxx1112basic_stringIcSt11char_traitsIcESaIcEEE.exit, label %if.end.i

if.end.i:                                         ; preds = %entry
  %call2.i = tail call noundef i64 @_ZNKSt7__cxx1112basic_stringIcSt11char_traitsIcESaIcEE6lengthEv(ptr noundef nonnull align 8 dereferenceable(32) %mMapName) #19
  %conv.i = trunc i64 %call2.i to i32
  store i32 %conv.i, ptr %tex, align 4
  %call3.i = tail call noundef ptr @_ZNKSt7__cxx1112basic_stringIcSt11char_traitsIcESaIcEE5c_strEv(ptr noundef nonnull align 8 dereferenceable(32) %mMapName) #19
  %conv5.i = and i64 %call2.i, 4294967295
  call void @llvm.memcpy.p0.p0.i64(ptr nonnull align 4 %data.i, ptr align 1 %call3.i, i64 %conv5.i, i1 false)
  %arrayidx.i = getelementptr inbounds [1024 x i8], ptr %data.i, i64 0, i64 %conv5.i
  store i8 0, ptr %arrayidx.i, align 1
  br label %_ZN8aiString3SetERKNSt7__cxx1112basic_stringIcSt11char_traitsIcESaIcEEE.exit

_ZN8aiString3SetERKNSt7__cxx1112basic_stringIcSt11char_traitsIcESaIcEEE.exit: ; preds = %entry, %if.end.i
  %call = call noundef i32 @_ZN10aiMaterial11AddPropertyEPK8aiStringPKcjj(ptr noundef nonnull align 8 dereferenceable(16) %mat, ptr noundef nonnull %tex, ptr noundef nonnull @.str.16, i32 noundef %type, i32 noundef 0)
  %0 = load i32, ptr %texture, align 8
  %1 = and i32 %0, 2139095040
  %cmp.i.i = icmp ne i32 %1, 2139095040
  %bf.clear2.i.i = and i32 %0, 8388607
  %tobool.i.i = icmp eq i32 %bf.clear2.i.i, 0
  %.not.i = or i1 %cmp.i.i, %tobool.i.i
  br i1 %.not.i, label %if.then, label %if.end

if.then:                                          ; preds = %_ZN8aiString3SetERKNSt7__cxx1112basic_stringIcSt11char_traitsIcESaIcEEE.exit
  %call.i9 = call noundef i32 @_ZN10aiMaterial17AddBinaryPropertyEPKvjPKcjj18aiPropertyTypeInfo(ptr noundef nonnull align 8 dereferenceable(16) %mat, ptr noundef nonnull %texture, i32 noundef 4, ptr noundef nonnull @.str.17, i32 noundef %type, i32 noundef 0, i32 noundef 1)
  br label %if.end

if.end:                                           ; preds = %if.then, %_ZN8aiString3SetERKNSt7__cxx1112basic_stringIcSt11char_traitsIcESaIcEEE.exit
  %mOffsetU = getelementptr inbounds i8, ptr %texture, i64 40
  %call.i10 = call noundef i32 @_ZN10aiMaterial17AddBinaryPropertyEPKvjPKcjj18aiPropertyTypeInfo(ptr noundef nonnull align 8 dereferenceable(16) %mat, ptr noundef nonnull %mOffsetU, i32 noundef 20, ptr noundef nonnull @.str.18, i32 noundef %type, i32 noundef 0, i32 noundef 1)
  ret void
}